target datalayout = "e-m:e-p270:32:32-p271:32:32-p272:64:64-i64:64-f80:128-n8:16:32:64-S128"
target triple = "x86_64-pc-linux-gnu"

%struct.student = type { [20 x i8], i32, i32, i8, i8, i32, i32 }

@.str = private unnamed_addr constant [3 x i8] c"%d\00", align 1
@.str.1 = private unnamed_addr constant [16 x i8] c"%s%d%d %c %c %d\00", align 1
@.str.2 = private unnamed_addr constant [9 x i8] c"%s\0A%d\0A%d\00", align 1

; Function Attrs: noinline nounwind uwtable
define dso_local void @main() #0 {
  %1 = alloca i32, align 4
  %2 = alloca i32, align 4
  %3 = alloca i32, align 4
  %4 = alloca i32, align 4
  %5 = alloca [100 x %struct.student], align 16
  %6 = alloca %struct.student, align 4
  store i32 0, i32* %4, align 4
  %7 = call i32 (i8*, ...) @__isoc99_scanf(i8* getelementptr inbounds ([3 x i8], [3 x i8]* @.str, i64 0, i64 0), i32* %1)
  store i32 0, i32* %2, align 4
  br label %8

8:                                                ; preds = %163, %0
  %9 = load i32, i32* %2, align 4
  %10 = load i32, i32* %1, align 4
  %11 = icmp slt i32 %9, %10
  br i1 %11, label %12, label %166

12:                                               ; preds = %8
  %13 = load i32, i32* %2, align 4
  %14 = sext i32 %13 to i64
  %15 = getelementptr inbounds [100 x %struct.student], [100 x %struct.student]* %5, i64 0, i64 %14
  %16 = getelementptr inbounds %struct.student, %struct.student* %15, i32 0, i32 0
  %17 = getelementptr inbounds [20 x i8], [20 x i8]* %16, i64 0, i64 0
  %18 = load i32, i32* %2, align 4
  %19 = sext i32 %18 to i64
  %20 = getelementptr inbounds [100 x %struct.student], [100 x %struct.student]* %5, i64 0, i64 %19
  %21 = getelementptr inbounds %struct.student, %struct.student* %20, i32 0, i32 1
  %22 = load i32, i32* %2, align 4
  %23 = sext i32 %22 to i64
  %24 = getelementptr inbounds [100 x %struct.student], [100 x %struct.student]* %5, i64 0, i64 %23
  %25 = getelementptr inbounds %struct.student, %struct.student* %24, i32 0, i32 2
  %26 = load i32, i32* %2, align 4
  %27 = sext i32 %26 to i64
  %28 = getelementptr inbounds [100 x %struct.student], [100 x %struct.student]* %5, i64 0, i64 %27
  %29 = getelementptr inbounds %struct.student, %struct.student* %28, i32 0, i32 3
  %30 = load i32, i32* %2, align 4
  %31 = sext i32 %30 to i64
  %32 = getelementptr inbounds [100 x %struct.student], [100 x %struct.student]* %5, i64 0, i64 %31
  %33 = getelementptr inbounds %struct.student, %struct.student* %32, i32 0, i32 4
  %34 = load i32, i32* %2, align 4
  %35 = sext i32 %34 to i64
  %36 = getelementptr inbounds [100 x %struct.student], [100 x %struct.student]* %5, i64 0, i64 %35
  %37 = getelementptr inbounds %struct.student, %struct.student* %36, i32 0, i32 5
  %38 = call i32 (i8*, ...) @__isoc99_scanf(i8* getelementptr inbounds ([16 x i8], [16 x i8]* @.str.1, i64 0, i64 0), i8* %17, i32* %21, i32* %25, i8* %29, i8* %33, i32* %37)
  %39 = load i32, i32* %2, align 4
  %40 = sext i32 %39 to i64
  %41 = getelementptr inbounds [100 x %struct.student], [100 x %struct.student]* %5, i64 0, i64 %40
  %42 = getelementptr inbounds %struct.student, %struct.student* %41, i32 0, i32 6
  store i32 0, i32* %42, align 4
  %43 = load i32, i32* %2, align 4
  %44 = sext i32 %43 to i64
  %45 = getelementptr inbounds [100 x %struct.student], [100 x %struct.student]* %5, i64 0, i64 %44
  %46 = getelementptr inbounds %struct.student, %struct.student* %45, i32 0, i32 1
  %47 = load i32, i32* %46, align 4
  %48 = icmp sgt i32 %47, 80
  br i1 %48, label %49, label %67

49:                                               ; preds = %12
  %50 = load i32, i32* %2, align 4
  %51 = sext i32 %50 to i64
  %52 = getelementptr inbounds [100 x %struct.student], [100 x %struct.student]* %5, i64 0, i64 %51
  %53 = getelementptr inbounds %struct.student, %struct.student* %52, i32 0, i32 5
  %54 = load i32, i32* %53, align 8
  %55 = icmp sge i32 %54, 1
  br i1 %55, label %56, label %67

56:                                               ; preds = %49
  %57 = load i32, i32* %2, align 4
  %58 = sext i32 %57 to i64
  %59 = getelementptr inbounds [100 x %struct.student], [100 x %struct.student]* %5, i64 0, i64 %58
  %60 = getelementptr inbounds %struct.student, %struct.student* %59, i32 0, i32 6
  %61 = load i32, i32* %60, align 4
  %62 = add nsw i32 %61, 8000
  %63 = load i32, i32* %2, align 4
  %64 = sext i32 %63 to i64
  %65 = getelementptr inbounds [100 x %struct.student], [100 x %struct.student]* %5, i64 0, i64 %64
  %66 = getelementptr inbounds %struct.student, %struct.student* %65, i32 0, i32 6
  store i32 %62, i32* %66, align 4
  br label %67

67:                                               ; preds = %56, %49, %12
  %68 = load i32, i32* %2, align 4
  %69 = sext i32 %68 to i64
  %70 = getelementptr inbounds [100 x %struct.student], [100 x %struct.student]* %5, i64 0, i64 %69
  %71 = getelementptr inbounds %struct.student, %struct.student* %70, i32 0, i32 1
  %72 = load i32, i32* %71, align 4
  %73 = icmp sgt i32 %72, 85
  br i1 %73, label %74, label %92

74:                                               ; preds = %67
  %75 = load i32, i32* %2, align 4
  %76 = sext i32 %75 to i64
  %77 = getelementptr inbounds [100 x %struct.student], [100 x %struct.student]* %5, i64 0, i64 %76
  %78 = getelementptr inbounds %struct.student, %struct.student* %77, i32 0, i32 2
  %79 = load i32, i32* %78, align 8
  %80 = icmp sgt i32 %79, 80
  br i1 %80, label %81, label %92

81:                                               ; preds = %74
  %82 = load i32, i32* %2, align 4
  %83 = sext i32 %82 to i64
  %84 = getelementptr inbounds [100 x %struct.student], [100 x %struct.student]* %5, i64 0, i64 %83
  %85 = getelementptr inbounds %struct.student, %struct.student* %84, i32 0, i32 6
  %86 = load i32, i32* %85, align 4
  %87 = add nsw i32 %86, 4000
  %88 = load i32, i32* %2, align 4
  %89 = sext i32 %88 to i64
  %90 = getelementptr inbounds [100 x %struct.student], [100 x %struct.student]* %5, i64 0, i64 %89
  %91 = getelementptr inbounds %struct.student, %struct.student* %90, i32 0, i32 6
  store i32 %87, i32* %91, align 4
  br label %92

92:                                               ; preds = %81, %74, %67
  %93 = load i32, i32* %2, align 4
  %94 = sext i32 %93 to i64
  %95 = getelementptr inbounds [100 x %struct.student], [100 x %struct.student]* %5, i64 0, i64 %94
  %96 = getelementptr inbounds %struct.student, %struct.student* %95, i32 0, i32 1
  %97 = load i32, i32* %96, align 4
  %98 = icmp sgt i32 %97, 90
  br i1 %98, label %99, label %110

99:                                               ; preds = %92
  %100 = load i32, i32* %2, align 4
  %101 = sext i32 %100 to i64
  %102 = getelementptr inbounds [100 x %struct.student], [100 x %struct.student]* %5, i64 0, i64 %101
  %103 = getelementptr inbounds %struct.student, %struct.student* %102, i32 0, i32 6
  %104 = load i32, i32* %103, align 4
  %105 = add nsw i32 %104, 2000
  %106 = load i32, i32* %2, align 4
  %107 = sext i32 %106 to i64
  %108 = getelementptr inbounds [100 x %struct.student], [100 x %struct.student]* %5, i64 0, i64 %107
  %109 = getelementptr inbounds %struct.student, %struct.student* %108, i32 0, i32 6
  store i32 %105, i32* %109, align 4
  br label %110

110:                                              ; preds = %99, %92
  %111 = load i32, i32* %2, align 4
  %112 = sext i32 %111 to i64
  %113 = getelementptr inbounds [100 x %struct.student], [100 x %struct.student]* %5, i64 0, i64 %112
  %114 = getelementptr inbounds %struct.student, %struct.student* %113, i32 0, i32 1
  %115 = load i32, i32* %114, align 4
  %116 = icmp sgt i32 %115, 85
  br i1 %116, label %117, label %136

117:                                              ; preds = %110
  %118 = load i32, i32* %2, align 4
  %119 = sext i32 %118 to i64
  %120 = getelementptr inbounds [100 x %struct.student], [100 x %struct.student]* %5, i64 0, i64 %119
  %121 = getelementptr inbounds %struct.student, %struct.student* %120, i32 0, i32 4
  %122 = load i8, i8* %121, align 1
  %123 = sext i8 %122 to i32
  %124 = icmp eq i32 %123, 89
  br i1 %124, label %125, label %136

125:                                              ; preds = %117
  %126 = load i32, i32* %2, align 4
  %127 = sext i32 %126 to i64
  %128 = getelementptr inbounds [100 x %struct.student], [100 x %struct.student]* %5, i64 0, i64 %127
  %129 = getelementptr inbounds %struct.student, %struct.student* %128, i32 0, i32 6
  %130 = load i32, i32* %129, align 4
  %131 = add nsw i32 %130, 1000
  %132 = load i32, i32* %2, align 4
  %133 = sext i32 %132 to i64
  %134 = getelementptr inbounds [100 x %struct.student], [100 x %struct.student]* %5, i64 0, i64 %133
  %135 = getelementptr inbounds %struct.student, %struct.student* %134, i32 0, i32 6
  store i32 %131, i32* %135, align 4
  br label %136

136:                                              ; preds = %125, %117, %110
  %137 = load i32, i32* %2, align 4
  %138 = sext i32 %137 to i64
  %139 = getelementptr inbounds [100 x %struct.student], [100 x %struct.student]* %5, i64 0, i64 %138
  %140 = getelementptr inbounds %struct.student, %struct.student* %139, i32 0, i32 2
  %141 = load i32, i32* %140, align 8
  %142 = icmp sgt i32 %141, 80
  br i1 %142, label %143, label %162

143:                                              ; preds = %136
  %144 = load i32, i32* %2, align 4
  %145 = sext i32 %144 to i64
  %146 = getelementptr inbounds [100 x %struct.student], [100 x %struct.student]* %5, i64 0, i64 %145
  %147 = getelementptr inbounds %struct.student, %struct.student* %146, i32 0, i32 3
  %148 = load i8, i8* %147, align 4
  %149 = sext i8 %148 to i32
  %150 = icmp eq i32 %149, 89
  br i1 %150, label %151, label %162

151:                                              ; preds = %143
  %152 = load i32, i32* %2, align 4
  %153 = sext i32 %152 to i64
  %154 = getelementptr inbounds [100 x %struct.student], [100 x %struct.student]* %5, i64 0, i64 %153
  %155 = getelementptr inbounds %struct.student, %struct.student* %154, i32 0, i32 6
  %156 = load i32, i32* %155, align 4
  %157 = add nsw i32 %156, 850
  %158 = load i32, i32* %2, align 4
  %159 = sext i32 %158 to i64
  %160 = getelementptr inbounds [100 x %struct.student], [100 x %struct.student]* %5, i64 0, i64 %159
  %161 = getelementptr inbounds %struct.student, %struct.student* %160, i32 0, i32 6
  store i32 %157, i32* %161, align 4
  br label %162

162:                                              ; preds = %151, %143, %136
  br label %163

163:                                              ; preds = %162
  %164 = load i32, i32* %2, align 4
  %165 = add nsw i32 %164, 1
  store i32 %165, i32* %2, align 4
  br label %8

166:                                              ; preds = %8
  store i32 1, i32* %3, align 4
  br label %167

167:                                              ; preds = %217, %166
  %168 = load i32, i32* %3, align 4
  %169 = load i32, i32* %1, align 4
  %170 = icmp slt i32 %168, %169
  br i1 %170, label %171, label %220

171:                                              ; preds = %167
  store i32 0, i32* %2, align 4
  br label %172

172:                                              ; preds = %213, %171
  %173 = load i32, i32* %2, align 4
  %174 = load i32, i32* %1, align 4
  %175 = load i32, i32* %3, align 4
  %176 = sub nsw i32 %174, %175
  %177 = icmp slt i32 %173, %176
  br i1 %177, label %178, label %216

178:                                              ; preds = %172
  %179 = load i32, i32* %2, align 4
  %180 = sext i32 %179 to i64
  %181 = getelementptr inbounds [100 x %struct.student], [100 x %struct.student]* %5, i64 0, i64 %180
  %182 = getelementptr inbounds %struct.student, %struct.student* %181, i32 0, i32 6
  %183 = load i32, i32* %182, align 4
  %184 = load i32, i32* %2, align 4
  %185 = add nsw i32 %184, 1
  %186 = sext i32 %185 to i64
  %187 = getelementptr inbounds [100 x %struct.student], [100 x %struct.student]* %5, i64 0, i64 %186
  %188 = getelementptr inbounds %struct.student, %struct.student* %187, i32 0, i32 6
  %189 = load i32, i32* %188, align 4
  %190 = icmp slt i32 %183, %189
  br i1 %190, label %191, label %212

191:                                              ; preds = %178
  %192 = load i32, i32* %2, align 4
  %193 = sext i32 %192 to i64
  %194 = getelementptr inbounds [100 x %struct.student], [100 x %struct.student]* %5, i64 0, i64 %193
  %195 = bitcast %struct.student* %6 to i8*
  %196 = bitcast %struct.student* %194 to i8*
  call void @llvm.memcpy.p0i8.p0i8.i64(i8* align 4 %195, i8* align 8 %196, i64 40, i1 false)
  %197 = load i32, i32* %2, align 4
  %198 = sext i32 %197 to i64
  %199 = getelementptr inbounds [100 x %struct.student], [100 x %struct.student]* %5, i64 0, i64 %198
  %200 = load i32, i32* %2, align 4
  %201 = add nsw i32 %200, 1
  %202 = sext i32 %201 to i64
  %203 = getelementptr inbounds [100 x %struct.student], [100 x %struct.student]* %5, i64 0, i64 %202
  %204 = bitcast %struct.student* %199 to i8*
  %205 = bitcast %struct.student* %203 to i8*
  call void @llvm.memcpy.p0i8.p0i8.i64(i8* align 8 %204, i8* align 8 %205, i64 40, i1 false)
  %206 = load i32, i32* %2, align 4
  %207 = add nsw i32 %206, 1
  %208 = sext i32 %207 to i64
  %209 = getelementptr inbounds [100 x %struct.student], [100 x %struct.student]* %5, i64 0, i64 %208
  %210 = bitcast %struct.student* %209 to i8*
  %211 = bitcast %struct.student* %6 to i8*
  call void @llvm.memcpy.p0i8.p0i8.i64(i8* align 8 %210, i8* align 4 %211, i64 40, i1 false)
  br label %212

212:                                              ; preds = %191, %178
  br label %213

213:                                              ; preds = %212
  %214 = load i32, i32* %2, align 4
  %215 = add nsw i32 %214, 1
  store i32 %215, i32* %2, align 4
  br label %172

216:                                              ; preds = %172
  br label %217

217:                                              ; preds = %216
  %218 = load i32, i32* %3, align 4
  %219 = add nsw i32 %218, 1
  store i32 %219, i32* %3, align 4
  br label %167

220:                                              ; preds = %167
  store i32 0, i32* %2, align 4
  br label %221

221:                                              ; preds = %233, %220
  %222 = load i32, i32* %2, align 4
  %223 = load i32, i32* %1, align 4
  %224 = icmp slt i32 %222, %223
  br i1 %224, label %225, label %236

225:                                              ; preds = %221
  %226 = load i32, i32* %4, align 4
  %227 = load i32, i32* %2, align 4
  %228 = sext i32 %227 to i64
  %229 = getelementptr inbounds [100 x %struct.student], [100 x %struct.student]* %5, i64 0, i64 %228
  %230 = getelementptr inbounds %struct.student, %struct.student* %229, i32 0, i32 6
  %231 = load i32, i32* %230, align 4
  %232 = add nsw i32 %226, %231
  store i32 %232, i32* %4, align 4
  br label %233

233:                                              ; preds = %225
  %234 = load i32, i32* %2, align 4
  %235 = add nsw i32 %234, 1
  store i32 %235, i32* %2, align 4
  br label %221

236:                                              ; preds = %221
  %237 = getelementptr inbounds [100 x %struct.student], [100 x %struct.student]* %5, i64 0, i64 0
  %238 = getelementptr inbounds %struct.student, %struct.student* %237, i32 0, i32 0
  %239 = getelementptr inbounds [20 x i8], [20 x i8]* %238, i64 0, i64 0
  %240 = getelementptr inbounds [100 x %struct.student], [100 x %struct.student]* %5, i64 0, i64 0
  %241 = getelementptr inbounds %struct.student, %struct.student* %240, i32 0, i32 6
  %242 = load i32, i32* %241, align 4
  %243 = load i32, i32* %4, align 4
  %244 = call i32 (i8*, ...) @printf(i8* getelementptr inbounds ([9 x i8], [9 x i8]* @.str.2, i64 0, i64 0), i8* %239, i32 %242, i32 %243)
  ret void
}